Certificate:
    Data:
        Version: 3 (0x2)
        Serial Number: 1 (0x1)
    Signature Algorithm: sha256WithRSAEncryption
        Issuer: C=IT, ST=Italy, L=Rome, O=Fort-Funston, OU=MyOrganizationalUnit, CN=francesco/name=easyrsa/emailAddress=me@myhost.mydomain
        Validity
            Not Before: Dec 18 20:50:48 2022 GMT
            Not After : Dec 15 20:50:48 2032 GMT
        Subject: C=IT, ST=Italy, L=Rome, O=Fort-Funston, OU=MyOrganizationalUnit, CN=francesco/name=easyrsa/emailAddress=me@myhost.mydomain
        Subject Public Key Info:
            Public Key Algorithm: rsaEncryption
                Public-Key: (2048 bit)
                Modulus:
                    00:b2:a7:81:17:89:26:19:c9:4b:a2:aa:04:66:23:
                    df:86:57:11:05:f8:4b:25:2d:18:29:92:eb:b9:f2:
                    bc:fa:86:a0:8d:b5:3e:28:e0:fa:d7:43:f2:18:f9:
                    70:1d:f7:f6:11:eb:c4:dd:98:05:1e:a4:5e:e8:56:
                    af:47:1a:e5:28:94:26:22:86:85:30:fd:76:24:a3:
                    92:0c:e7:7f:87:a4:13:b1:ee:de:55:38:c4:d0:d4:
                    9e:91:77:5b:94:dc:a6:e3:8b:d5:08:2e:69:ed:14:
                    70:9c:1d:3a:0b:62:da:e5:26:71:32:27:ec:85:9a:
                    fa:11:d8:92:5c:ae:83:28:42:2a:80:e2:74:20:11:
                    c9:f2:e5:e5:5b:c3:7d:12:26:67:25:6d:96:0f:50:
                    f3:3f:d3:f8:d6:1a:e8:d2:26:1b:5e:32:bc:cd:45:
                    89:19:2d:d8:71:57:42:28:89:38:97:e8:9e:65:a6:
                    da:72:fc:a8:6f:b2:f0:40:95:27:f7:d4:c4:4b:da:
                    35:88:39:b2:2e:2d:5e:1c:46:78:22:c6:9b:ad:b2:
                    18:e4:7b:9b:67:50:ab:0e:01:6d:87:7f:46:23:43:
                    fe:48:48:79:51:af:a5:3c:ed:61:4d:5b:d2:d7:4f:
                    44:04:ac:67:52:7f:16:ec:98:06:78:df:6d:85:e3:
                    83:a3
                Exponent: 65537 (0x10001)
        X509v3 extensions:
            X509v3 Basic Constraints: 
                CA:FALSE
            Netscape Cert Type: 
                SSL Server
            Netscape Comment: 
                Easy-RSA Generated Server Certificate
            X509v3 Subject Key Identifier: 
                B5:11:6A:5B:B4:A3:B6:1E:B9:81:F7:F4:43:8D:AC:0E:69:26:53:53
            X509v3 Authority Key Identifier: 
                keyid:62:51:5E:67:FD:7D:70:0E:A6:54:F3:0B:43:6F:C9:B5:37:B7:ED:73
                DirName:/C=IT/ST=Italy/L=Rome/O=Fort-Funston/OU=MyOrganizationalUnit/CN=francesco/name=easyrsa/emailAddress=me@myhost.mydomain
                serial:C7:26:5C:57:67:11:1D:71

            X509v3 Extended Key Usage: 
                TLS Web Server Authentication
            X509v3 Key Usage: 
                Digital Signature, Key Encipherment
            X509v3 Subject Alternative Name: 
                DNS:myserver
    Signature Algorithm: sha256WithRSAEncryption
         60:ac:bd:c0:86:b8:25:d5:51:28:40:2a:45:64:5e:f3:24:8c:
         68:9c:1b:db:0a:26:81:0a:e4:a3:4c:85:4c:a1:39:84:36:bb:
         c1:30:0e:9e:d7:62:6f:95:9d:fe:61:bd:7c:a0:d5:be:34:eb:
         33:0f:13:00:e9:a9:1a:51:b4:f9:95:b9:f8:da:5e:ae:33:cf:
         be:bf:13:fe:85:29:fe:22:e6:39:a3:19:1b:48:44:01:31:72:
         ab:32:e7:c2:f8:a4:00:ed:b6:6b:9b:20:d7:e7:c3:29:f9:0e:
         f2:1a:9a:80:1f:e3:bf:e2:14:c1:3c:2d:a7:b3:fe:61:3c:6d:
         a9:32:28:7b:04:01:b2:68:6b:ea:95:b8:d7:4a:74:e2:98:c7:
         9c:2f:4a:21:f5:e8:a7:f8:9e:ef:d5:33:69:a2:37:01:72:e9:
         0d:93:76:37:33:ee:b0:1c:d3:d2:54:f2:bb:f4:0d:b8:08:28:
         32:56:38:9b:2d:f9:c0:cb:d9:90:3d:56:57:e5:1e:04:50:79:
         94:c0:b3:62:d3:d8:0e:e4:7d:53:e8:d0:d6:e3:35:6d:e2:c6:
         36:52:a6:5f:09:d6:bc:9b:90:7a:c4:5b:de:ca:d4:20:4b:92:
         5b:a2:05:b0:48:70:13:d7:8b:f9:c3:5b:4b:84:11:4f:83:fa:
         76:2f:4c:93
-----BEGIN CERTIFICATE-----
MIIFZjCCBE6gAwIBAgIBATANBgkqhkiG9w0BAQsFADCBqzELMAkGA1UEBhMCSVQx
DjAMBgNVBAgTBUl0YWx5MQ0wCwYDVQQHEwRSb21lMRUwEwYDVQQKEwxGb3J0LUZ1
bnN0b24xHTAbBgNVBAsTFE15T3JnYW5pemF0aW9uYWxVbml0MRIwEAYDVQQDEwlm
cmFuY2VzY28xEDAOBgNVBCkTB2Vhc3lyc2ExITAfBgkqhkiG9w0BCQEWEm1lQG15
aG9zdC5teWRvbWFpbjAeFw0yMjEyMTgyMDUwNDhaFw0zMjEyMTUyMDUwNDhaMIGr
MQswCQYDVQQGEwJJVDEOMAwGA1UECBMFSXRhbHkxDTALBgNVBAcTBFJvbWUxFTAT
BgNVBAoTDEZvcnQtRnVuc3RvbjEdMBsGA1UECxMUTXlPcmdhbml6YXRpb25hbFVu
aXQxEjAQBgNVBAMTCWZyYW5jZXNjbzEQMA4GA1UEKRMHZWFzeXJzYTEhMB8GCSqG
SIb3DQEJARYSbWVAbXlob3N0Lm15ZG9tYWluMIIBIjANBgkqhkiG9w0BAQEFAAOC
AQ8AMIIBCgKCAQEAsqeBF4kmGclLoqoEZiPfhlcRBfhLJS0YKZLrufK8+oagjbU+
KOD610PyGPlwHff2EevE3ZgFHqRe6FavRxrlKJQmIoaFMP12JKOSDOd/h6QTse7e
VTjE0NSekXdblNym44vVCC5p7RRwnB06C2La5SZxMifshZr6EdiSXK6DKEIqgOJ0
IBHJ8uXlW8N9EiZnJW2WD1DzP9P41hro0iYbXjK8zUWJGS3YcVdCKIk4l+ieZaba
cvyob7LwQJUn99TES9o1iDmyLi1eHEZ4IsabrbIY5HubZ1CrDgFth39GI0P+SEh5
Ua+lPO1hTVvS109EBKxnUn8W7JgGeN9theODowIDAQABo4IBkTCCAY0wCQYDVR0T
BAIwADARBglghkgBhvhCAQEEBAMCBkAwNAYJYIZIAYb4QgENBCcWJUVhc3ktUlNB
IEdlbmVyYXRlZCBTZXJ2ZXIgQ2VydGlmaWNhdGUwHQYDVR0OBBYEFLURalu0o7Ye
uYH39EONrA5pJlNTMIHgBgNVHSMEgdgwgdWAFGJRXmf9fXAOplTzC0NvybU3t+1z
oYGxpIGuMIGrMQswCQYDVQQGEwJJVDEOMAwGA1UECBMFSXRhbHkxDTALBgNVBAcT
BFJvbWUxFTATBgNVBAoTDEZvcnQtRnVuc3RvbjEdMBsGA1UECxMUTXlPcmdhbml6
YXRpb25hbFVuaXQxEjAQBgNVBAMTCWZyYW5jZXNjbzEQMA4GA1UEKRMHZWFzeXJz
YTEhMB8GCSqGSIb3DQEJARYSbWVAbXlob3N0Lm15ZG9tYWluggkAxyZcV2cRHXEw
EwYDVR0lBAwwCgYIKwYBBQUHAwEwCwYDVR0PBAQDAgWgMBMGA1UdEQQMMAqCCG15
c2VydmVyMA0GCSqGSIb3DQEBCwUAA4IBAQBgrL3Ahrgl1VEoQCpFZF7zJIxonBvb
CiaBCuSjTIVMoTmENrvBMA6e12JvlZ3+Yb18oNW+NOszDxMA6akaUbT5lbn42l6u
M8++vxP+hSn+IuY5oxkbSEQBMXKrMufC+KQA7bZrmyDX58Mp+Q7yGpqAH+O/4hTB
PC2ns/5hPG2pMih7BAGyaGvqlbjXSnTimMecL0oh9ein+J7v1TNpojcBcukNk3Y3
M+6wHNPSVPK79A24CCgyVjibLfnAy9mQPVZX5R4EUHmUwLNi09gO5H1T6NDW4zVt
4sY2UqZfCda8m5B6xFveytQgS5JbogWwSHAT14v5w1tLhBFPg/p2L0yT
-----END CERTIFICATE-----
